; Function Attrs: nounwind uwtable
define void @Abc_NtkPrintMffc(ptr noundef readnone captures(none) %0, ptr noundef readonly captures(none) %1) local_unnamed_addr #0 {
  %3 = getelementptr inbounds nuw i8, ptr %1, i64 32
  %4 = load ptr, ptr %3, align 8
  %5 = getelementptr i8, ptr %4, i64 4
  %.val12 = load i32, ptr %5, align 4
  %6 = icmp sgt i32 %.val12, 0
  br i1 %6, label %.lr.ph, label %.critedge

.lr.ph:                                           ; preds = %2, %19
  %7 = phi ptr [ %20, %19 ], [ %4, %2 ]
  %indvars.iv = phi i64 [ %indvars.iv.next, %19 ], [ 0, %2 ]
  %8 = getelementptr i8, ptr %7, i64 8
  %.val9.val = load ptr, ptr %8, align 8
  %9 = getelementptr inbounds nuw ptr, ptr %.val9.val, i64 %indvars.iv
  %10 = load ptr, ptr %9, align 8
  %11 = icmp eq ptr %10, null
  br i1 %11, label %19, label %12

12:                                               ; preds = %.lr.ph
  %13 = getelementptr i8, ptr %10, i64 20
  %.val10 = load i32, ptr %13, align 4
  %14 = and i32 %.val10, 15
  %.not = icmp eq i32 %14, 7
  br i1 %.not, label %15, label %19

15:                                               ; preds = %12
  %16 = getelementptr i8, ptr %10, i64 44
  %.val11 = load i32, ptr %16, align 4
  %17 = icmp sgt i32 %.val11, 1
  br i1 %17, label %18, label %19

18:                                               ; preds = %15
  tail call void @Abc_NodeMffcConeSuppPrint(ptr noundef nonnull %10) #19
  %.pre = load ptr, ptr %3, align 8
  br label %19

19:                                               ; preds = %12, %.lr.ph, %18, %15
  %20 = phi ptr [ %7, %12 ], [ %7, %.lr.ph ], [ %.pre, %18 ], [ %7, %15 ]
  %indvars.iv.next = add nuw nsw i64 %indvars.iv, 1
  %21 = getelementptr i8, ptr %20, i64 4
  %.val = load i32, ptr %21, align 4
  %22 = sext i32 %.val to i64
  %23 = icmp slt i64 %indvars.iv.next, %22
  br i1 %23, label %.lr.ph, label %.critedge, !llvm.loop !58

.critedge:                                        ; preds = %19, %2
  ret void
}